; Function Attrs: mustprogress nofree norecurse nosync nounwind willreturn memory(argmem: write) uwtable
define hidden void @_ZN4cvc58internal4expr12TermCanonizeC2EPNS1_17TypeClassCallbackE(ptr noundef nonnull align 8 dereferenceable(216) initializes((0, 12), (24, 28), (32, 40)) %0, ptr noundef %1) unnamed_addr #3 align 2 personality ptr @__gxx_personality_v0 {
  store ptr %1, ptr %0, align 8, !tbaa !3
  %3 = getelementptr inbounds nuw i8, ptr %0, i64 8
  store i32 0, ptr %3, align 8, !tbaa !33
  %4 = getelementptr inbounds nuw i8, ptr %0, i64 24
  store i32 0, ptr %4, align 8, !tbaa !34
  %5 = getelementptr inbounds nuw i8, ptr %0, i64 32
  store ptr null, ptr %5, align 8, !tbaa !35
  %6 = getelementptr inbounds nuw i8, ptr %0, i64 40
  store ptr %4, ptr %6, align 8, !tbaa !36
  %7 = getelementptr inbounds nuw i8, ptr %0, i64 48
  store ptr %4, ptr %7, align 8, !tbaa !37
  %8 = getelementptr inbounds nuw i8, ptr %0, i64 56
  store i64 0, ptr %8, align 8, !tbaa !38
  %9 = getelementptr inbounds nuw i8, ptr %0, i64 64
  store i32 0, ptr %9, align 8, !tbaa !39
  %10 = getelementptr inbounds nuw i8, ptr %0, i64 80
  store i32 0, ptr %10, align 8, !tbaa !34
  %11 = getelementptr inbounds nuw i8, ptr %0, i64 88
  store ptr null, ptr %11, align 8, !tbaa !35
  %12 = getelementptr inbounds nuw i8, ptr %0, i64 96
  store ptr %10, ptr %12, align 8, !tbaa !36
  %13 = getelementptr inbounds nuw i8, ptr %0, i64 104
  store ptr %10, ptr %13, align 8, !tbaa !37
  %14 = getelementptr inbounds nuw i8, ptr %0, i64 112
  store i64 0, ptr %14, align 8, !tbaa !38
  %15 = getelementptr inbounds nuw i8, ptr %0, i64 128
  store i32 0, ptr %15, align 8, !tbaa !34
  %16 = getelementptr inbounds nuw i8, ptr %0, i64 136
  store ptr null, ptr %16, align 8, !tbaa !35
  %17 = getelementptr inbounds nuw i8, ptr %0, i64 144
  store ptr %15, ptr %17, align 8, !tbaa !36
  %18 = getelementptr inbounds nuw i8, ptr %0, i64 152
  store ptr %15, ptr %18, align 8, !tbaa !37
  %19 = getelementptr inbounds nuw i8, ptr %0, i64 160
  store i64 0, ptr %19, align 8, !tbaa !38
  %20 = getelementptr inbounds nuw i8, ptr %0, i64 176
  store i32 0, ptr %20, align 8, !tbaa !34
  %21 = getelementptr inbounds nuw i8, ptr %0, i64 184
  store ptr null, ptr %21, align 8, !tbaa !35
  %22 = getelementptr inbounds nuw i8, ptr %0, i64 192
  store ptr %20, ptr %22, align 8, !tbaa !36
  %23 = getelementptr inbounds nuw i8, ptr %0, i64 200
  store ptr %20, ptr %23, align 8, !tbaa !37
  %24 = getelementptr inbounds nuw i8, ptr %0, i64 208
  store i64 0, ptr %24, align 8, !tbaa !38
  ret void
}